target datalayout = "e-m:e-p270:32:32-p271:32:32-p272:64:64-i64:64-i128:128-f80:128-n8:16:32:64-S128"
target triple = "x86_64-pc-linux-gnu"

@.str.106 = private unnamed_addr constant [201 x i8] c"00010203040506070809101112131415161718192021222324252627282930313233343536373839404142434445464748495051525354555657585960616263646566676869707172737475767778798081828384858687888990919293949596979899\00", align 1

; Function Attrs: inlinehint mustprogress nounwind uwtable
define linkonce_odr hidden noundef ptr @_ZN5boost4json6detail10digits_lutEv() #1 comdat {
  ret ptr @.str.106
}

; Function Attrs: noinline noreturn nounwind uwtable
define linkonce_odr hidden void @__clang_call_terminate(ptr noundef %0) #3 comdat {
  %2 = call ptr @__cxa_begin_catch(ptr %0) #10
  call void @_ZSt9terminatev() #34
  unreachable
}

; Function Attrs: inlinehint mustprogress nounwind uwtable
define linkonce_odr hidden void @_ZN5boost4json6detail12format_digitEPcj(ptr noundef %0, i32 noundef %1) #1 comdat {
  %3 = alloca ptr, align 8
  %4 = alloca i32, align 4
  store ptr %0, ptr %3, align 8, !tbaa !3
  store i32 %1, ptr %4, align 4, !tbaa !7
  %5 = load i32, ptr %4, align 4, !tbaa !7
  %6 = add i32 %5, 48
  %7 = trunc i32 %6 to i8
  %8 = load ptr, ptr %3, align 8, !tbaa !3
  store i8 %7, ptr %8, align 1, !tbaa !56
  ret void
}

; Function Attrs: inlinehint mustprogress nounwind uwtable
define linkonce_odr hidden void @_ZN5boost4json6detail17format_two_digitsEPcj(ptr noundef %0, i32 noundef %1) #1 comdat {
  %3 = alloca ptr, align 8
  %4 = alloca i32, align 4
  store ptr %0, ptr %3, align 8, !tbaa !3
  store i32 %1, ptr %4, align 4, !tbaa !7
  %5 = load ptr, ptr %3, align 8, !tbaa !3
  %6 = call noundef ptr @_ZN5boost4json6detail10digits_lutEv() #10
  %7 = load i32, ptr %4, align 4, !tbaa !7
  %8 = mul i32 %7, 2
  %9 = zext i32 %8 to i64
  %10 = getelementptr inbounds nuw i8, ptr %6, i64 %9
  call void @llvm.memcpy.p0.p0.i64(ptr align 1 %5, ptr align 1 %10, i64 2, i1 false)
  ret void
}

; Function Attrs: inlinehint mustprogress nounwind uwtable
define linkonce_odr hidden void @_ZN5boost4json6detail18format_four_digitsEPcj(ptr noundef %0, i32 noundef %1) #1 comdat {
  %3 = alloca ptr, align 8
  %4 = alloca i32, align 4
  store ptr %0, ptr %3, align 8, !tbaa !3
  store i32 %1, ptr %4, align 4, !tbaa !7
  %5 = load ptr, ptr %3, align 8, !tbaa !3
  %6 = getelementptr inbounds i8, ptr %5, i64 2
  %7 = call noundef ptr @_ZN5boost4json6detail10digits_lutEv() #10
  %8 = load i32, ptr %4, align 4, !tbaa !7
  %9 = urem i32 %8, 100
  %10 = mul i32 %9, 2
  %11 = zext i32 %10 to i64
  %12 = getelementptr inbounds nuw i8, ptr %7, i64 %11
  call void @llvm.memcpy.p0.p0.i64(ptr align 1 %6, ptr align 1 %12, i64 2, i1 false)
  %13 = load ptr, ptr %3, align 8, !tbaa !3
  %14 = call noundef ptr @_ZN5boost4json6detail10digits_lutEv() #10
  %15 = load i32, ptr %4, align 4, !tbaa !7
  %16 = udiv i32 %15, 100
  %17 = mul i32 %16, 2
  %18 = zext i32 %17 to i64
  %19 = getelementptr inbounds nuw i8, ptr %14, i64 %18
  call void @llvm.memcpy.p0.p0.i64(ptr align 1 %13, ptr align 1 %19, i64 2, i1 false)
  ret void
}

; Function Attrs: mustprogress nounwind uwtable
define noundef i32 @_ZN5boost4json6detail13format_uint64EPcm(ptr noundef %0, i64 noundef %1) #2 personality ptr @__gxx_personality_v0 {
  %3 = alloca i32, align 4
  %4 = alloca ptr, align 8
  %5 = alloca i64, align 8
  %6 = alloca [24 x i8], align 16
  %7 = alloca ptr, align 8
  %8 = alloca i32, align 4
  store ptr %0, ptr %4, align 8, !tbaa !3
  store i64 %1, ptr %5, align 8, !tbaa !16
  %9 = load i64, ptr %5, align 8, !tbaa !16
  %10 = icmp ult i64 %9, 10
  br i1 %10, label %11, label %16

11:                                               ; preds = %2
  %12 = load i64, ptr %5, align 8, !tbaa !16
  %13 = add i64 48, %12
  %14 = trunc i64 %13 to i8
  %15 = load ptr, ptr %4, align 8, !tbaa !3
  store i8 %14, ptr %15, align 1, !tbaa !56
  store i32 1, ptr %3, align 4
  br label %68

16:                                               ; preds = %2
  call void @llvm.lifetime.start.p0(i64 24, ptr %6) #10
  call void @llvm.lifetime.start.p0(i64 8, ptr %7) #10
  %17 = getelementptr inbounds [24 x i8], ptr %6, i64 0, i64 0
  %18 = getelementptr inbounds i8, ptr %17, i64 24
  store ptr %18, ptr %7, align 8, !tbaa !3
  br label %19

19:                                               ; preds = %29, %16
  %20 = load i64, ptr %5, align 8, !tbaa !16
  %21 = icmp uge i64 %20, 1000
  br i1 %21, label %22, label %32

22:                                               ; preds = %19
  %23 = load ptr, ptr %7, align 8, !tbaa !3
  %24 = getelementptr inbounds i8, ptr %23, i64 -4
  store ptr %24, ptr %7, align 8, !tbaa !3
  %25 = load ptr, ptr %7, align 8, !tbaa !3
  %26 = load i64, ptr %5, align 8, !tbaa !16
  %27 = urem i64 %26, 10000
  %28 = trunc i64 %27 to i32
  invoke void @_ZN5boost4json6detail18format_four_digitsEPcj(ptr noundef %25, i32 noundef %28)
          to label %29 unwind label %70

29:                                               ; preds = %22
  %30 = load i64, ptr %5, align 8, !tbaa !16
  %31 = udiv i64 %30, 10000
  store i64 %31, ptr %5, align 8, !tbaa !16
  br label %19, !llvm.loop !263

32:                                               ; preds = %19
  %33 = load i64, ptr %5, align 8, !tbaa !16
  %34 = icmp uge i64 %33, 10
  br i1 %34, label %35, label %45

35:                                               ; preds = %32
  %36 = load ptr, ptr %7, align 8, !tbaa !3
  %37 = getelementptr inbounds i8, ptr %36, i64 -2
  store ptr %37, ptr %7, align 8, !tbaa !3
  %38 = load ptr, ptr %7, align 8, !tbaa !3
  %39 = load i64, ptr %5, align 8, !tbaa !16
  %40 = urem i64 %39, 100
  %41 = trunc i64 %40 to i32
  invoke void @_ZN5boost4json6detail17format_two_digitsEPcj(ptr noundef %38, i32 noundef %41)
          to label %42 unwind label %70

42:                                               ; preds = %35
  %43 = load i64, ptr %5, align 8, !tbaa !16
  %44 = udiv i64 %43, 100
  store i64 %44, ptr %5, align 8, !tbaa !16
  br label %45

45:                                               ; preds = %42, %32
  %46 = load i64, ptr %5, align 8, !tbaa !16
  %47 = icmp ne i64 %46, 0
  br i1 %47, label %48, label %55

48:                                               ; preds = %45
  %49 = load ptr, ptr %7, align 8, !tbaa !3
  %50 = getelementptr inbounds i8, ptr %49, i64 -1
  store ptr %50, ptr %7, align 8, !tbaa !3
  %51 = load ptr, ptr %7, align 8, !tbaa !3
  %52 = load i64, ptr %5, align 8, !tbaa !16
  %53 = trunc i64 %52 to i32
  invoke void @_ZN5boost4json6detail12format_digitEPcj(ptr noundef %51, i32 noundef %53)
          to label %54 unwind label %70

54:                                               ; preds = %48
  br label %55

55:                                               ; preds = %54, %45
  call void @llvm.lifetime.start.p0(i64 4, ptr %8) #10
  %56 = getelementptr inbounds [24 x i8], ptr %6, i64 0, i64 0
  %57 = getelementptr inbounds i8, ptr %56, i64 24
  %58 = load ptr, ptr %7, align 8, !tbaa !3
  %59 = ptrtoint ptr %57 to i64
  %60 = ptrtoint ptr %58 to i64
  %61 = sub i64 %59, %60
  %62 = trunc i64 %61 to i32
  store i32 %62, ptr %8, align 4, !tbaa !7
  %63 = load ptr, ptr %4, align 8, !tbaa !3
  %64 = load ptr, ptr %7, align 8, !tbaa !3
  %65 = load i32, ptr %8, align 4, !tbaa !7
  %66 = zext i32 %65 to i64
  call void @llvm.memcpy.p0.p0.i64(ptr align 1 %63, ptr align 1 %64, i64 %66, i1 false)
  %67 = load i32, ptr %8, align 4, !tbaa !7
  store i32 %67, ptr %3, align 4
  call void @llvm.lifetime.end.p0(i64 4, ptr %8) #10
  call void @llvm.lifetime.end.p0(i64 8, ptr %7) #10
  call void @llvm.lifetime.end.p0(i64 24, ptr %6) #10
  br label %68

68:                                               ; preds = %55, %11
  %69 = load i32, ptr %3, align 4
  ret i32 %69

70:                                               ; preds = %48, %35, %22
  %71 = landingpad { ptr, i32 }
          catch ptr null
  %72 = extractvalue { ptr, i32 } %71, 0
  call void @__clang_call_terminate(ptr %72) #34
  unreachable
}

; Function Attrs: mustprogress nounwind uwtable
define noundef i32 @_ZN5boost4json6detail12format_int64EPcl(ptr noundef %0, i64 noundef %1) #2 {
  %3 = alloca i32, align 4
  %4 = alloca ptr, align 8
  %5 = alloca i64, align 8
  %6 = alloca i64, align 8
  %7 = alloca i32, align 4
  store ptr %0, ptr %4, align 8, !tbaa !3
  store i64 %1, ptr %5, align 8, !tbaa !16
  call void @llvm.lifetime.start.p0(i64 8, ptr %6) #10
  %8 = load i64, ptr %5, align 8, !tbaa !16
  store i64 %8, ptr %6, align 8, !tbaa !16
  %9 = load i64, ptr %5, align 8, !tbaa !16
  %10 = icmp sge i64 %9, 0
  br i1 %10, label %11, label %15

11:                                               ; preds = %2
  %12 = load ptr, ptr %4, align 8, !tbaa !3
  %13 = load i64, ptr %6, align 8, !tbaa !16
  %14 = call noundef i32 @_ZN5boost4json6detail13format_uint64EPcm(ptr noundef %12, i64 noundef %13) #10
  store i32 %14, ptr %3, align 4
  store i32 1, ptr %7, align 4
  br label %25

15:                                               ; preds = %2
  %16 = load ptr, ptr %4, align 8, !tbaa !3
  %17 = getelementptr inbounds nuw i8, ptr %16, i32 1
  store ptr %17, ptr %4, align 8, !tbaa !3
  store i8 45, ptr %16, align 1, !tbaa !56
  %18 = load i64, ptr %6, align 8, !tbaa !16
  %19 = xor i64 %18, -1
  %20 = add i64 %19, 1
  store i64 %20, ptr %6, align 8, !tbaa !16
  %21 = load ptr, ptr %4, align 8, !tbaa !3
  %22 = load i64, ptr %6, align 8, !tbaa !16
  %23 = call noundef i32 @_ZN5boost4json6detail13format_uint64EPcm(ptr noundef %21, i64 noundef %22) #10
  %24 = add i32 1, %23
  store i32 %24, ptr %3, align 4
  store i32 1, ptr %7, align 4
  br label %25

25:                                               ; preds = %15, %11
  call void @llvm.lifetime.end.p0(i64 8, ptr %6) #10
  %26 = load i32, ptr %3, align 4
  ret i32 %26
}