; Function Attrs: mustprogress nofree norecurse nosync nounwind memory(argmem: readwrite) uwtable
define noundef i32 @_ZN5boost4json6detail12format_int64EPcl(ptr nocapture noundef writeonly %0, i64 noundef %1) local_unnamed_addr #11 personality ptr @__gxx_personality_v0 {
  %3 = alloca [24 x i8], align 16
  %4 = alloca [24 x i8], align 16
  %5 = icmp sgt i64 %1, -1
  br i1 %5, label %6, label %48

6:                                                ; preds = %2
  %7 = icmp ult i64 %1, 10
  br i1 %7, label %8, label %11

8:                                                ; preds = %6
  %9 = trunc nuw i64 %1 to i8
  %10 = or disjoint i8 %9, 48
  store i8 %10, ptr %0, align 1, !tbaa !15
  br label %_ZN5boost4json6detail13format_uint64EPcm.exit

11:                                               ; preds = %6
  call void @llvm.lifetime.start.p0(i64 24, ptr nonnull %4) #48
  %12 = getelementptr inbounds i8, ptr %4, i64 24
  %13 = icmp ugt i64 %1, 999
  br i1 %13, label %.lr.ph.i, label %._crit_edge.thread.i

.lr.ph.i:                                         ; preds = %11, %.lr.ph.i
  %.02234.i = phi ptr [ %14, %.lr.ph.i ], [ %12, %11 ]
  %.02333.i = phi i64 [ %27, %.lr.ph.i ], [ %1, %11 ]
  %14 = getelementptr inbounds i8, ptr %.02234.i, i64 -4
  %15 = urem i64 %.02333.i, 10000
  %16 = getelementptr inbounds i8, ptr %.02234.i, i64 -2
  %.lhs.trunc.i = trunc nuw nsw i64 %15 to i16
  %17 = urem i16 %.lhs.trunc.i, 100
  %18 = shl nuw nsw i16 %17, 1
  %19 = zext nneg i16 %18 to i64
  %20 = getelementptr inbounds nuw i8, ptr @.str.106, i64 %19
  %21 = load i16, ptr %20, align 1
  store i16 %21, ptr %16, align 1
  %22 = udiv i16 %.lhs.trunc.i, 100
  %23 = shl nuw nsw i16 %22, 1
  %24 = zext nneg i16 %23 to i64
  %25 = getelementptr inbounds nuw i8, ptr @.str.106, i64 %24
  %26 = load i16, ptr %25, align 1
  store i16 %26, ptr %14, align 1
  %27 = udiv i64 %.02333.i, 10000
  %28 = icmp ugt i64 %.02333.i, 9999999
  br i1 %28, label %.lr.ph.i, label %._crit_edge.i, !llvm.loop !356

._crit_edge.i:                                    ; preds = %.lr.ph.i
  %29 = icmp ugt i64 %.02333.i, 99999
  br i1 %29, label %._crit_edge.thread.i, label %37

._crit_edge.thread.i:                             ; preds = %._crit_edge.i, %11
  %.022.lcssa40.i = phi ptr [ %14, %._crit_edge.i ], [ %12, %11 ]
  %.023.lcssa39.i = phi i64 [ %27, %._crit_edge.i ], [ %1, %11 ]
  %30 = getelementptr inbounds i8, ptr %.022.lcssa40.i, i64 -2
  %.lhs.trunc29.i = trunc nuw i64 %.023.lcssa39.i to i16
  %31 = urem i16 %.lhs.trunc29.i, 100
  %32 = shl nuw nsw i16 %31, 1
  %33 = zext nneg i16 %32 to i64
  %34 = getelementptr inbounds nuw i8, ptr @.str.106, i64 %33
  %35 = load i16, ptr %34, align 1
  store i16 %35, ptr %30, align 1
  %36 = udiv i16 %.lhs.trunc29.i, 100
  %.zext32.i = zext nneg i16 %36 to i64
  br label %37

37:                                               ; preds = %._crit_edge.thread.i, %._crit_edge.i
  %.124.i = phi i64 [ %.zext32.i, %._crit_edge.thread.i ], [ %27, %._crit_edge.i ]
  %.1.i = phi ptr [ %30, %._crit_edge.thread.i ], [ %14, %._crit_edge.i ]
  %.not.i = icmp eq i64 %.124.i, 0
  br i1 %.not.i, label %42, label %38

38:                                               ; preds = %37
  %39 = getelementptr inbounds i8, ptr %.1.i, i64 -1
  %40 = trunc i64 %.124.i to i8
  %41 = add nuw nsw i8 %40, 48
  store i8 %41, ptr %39, align 1, !tbaa !15
  br label %42

42:                                               ; preds = %38, %37
  %.2.i = phi ptr [ %39, %38 ], [ %.1.i, %37 ]
  %43 = ptrtoint ptr %12 to i64
  %44 = ptrtoint ptr %.2.i to i64
  %45 = sub i64 %43, %44
  %46 = trunc i64 %45 to i32
  %47 = and i64 %45, 4294967295
  call void @llvm.memcpy.p0.p0.i64(ptr align 1 %0, ptr nonnull align 1 %.2.i, i64 %47, i1 false)
  call void @llvm.lifetime.end.p0(i64 24, ptr nonnull %4) #48
  br label %_ZN5boost4json6detail13format_uint64EPcm.exit

48:                                               ; preds = %2
  %49 = getelementptr inbounds nuw i8, ptr %0, i64 1
  store i8 45, ptr %0, align 1, !tbaa !15
  %50 = sub i64 0, %1
  %51 = icmp ult i64 %50, 10
  br i1 %51, label %52, label %55

52:                                               ; preds = %48
  %53 = trunc nuw i64 %50 to i8
  %54 = or disjoint i8 %53, 48
  store i8 %54, ptr %49, align 1, !tbaa !15
  br label %_ZN5boost4json6detail13format_uint64EPcm.exit

55:                                               ; preds = %48
  call void @llvm.lifetime.start.p0(i64 24, ptr nonnull %3) #48
  %56 = getelementptr inbounds i8, ptr %3, i64 24
  %57 = icmp ugt i64 %50, 999
  br i1 %57, label %.lr.ph.i19, label %._crit_edge.thread.i9

.lr.ph.i19:                                       ; preds = %55, %.lr.ph.i19
  %.02234.i20 = phi ptr [ %58, %.lr.ph.i19 ], [ %56, %55 ]
  %.02333.i21 = phi i64 [ %71, %.lr.ph.i19 ], [ %50, %55 ]
  %58 = getelementptr inbounds i8, ptr %.02234.i20, i64 -4
  %59 = urem i64 %.02333.i21, 10000
  %60 = getelementptr inbounds i8, ptr %.02234.i20, i64 -2
  %.lhs.trunc.i22 = trunc nuw nsw i64 %59 to i16
  %61 = urem i16 %.lhs.trunc.i22, 100
  %62 = shl nuw nsw i16 %61, 1
  %63 = zext nneg i16 %62 to i64
  %64 = getelementptr inbounds nuw i8, ptr @.str.106, i64 %63
  %65 = load i16, ptr %64, align 1
  store i16 %65, ptr %60, align 1
  %66 = udiv i16 %.lhs.trunc.i22, 100
  %67 = shl nuw nsw i16 %66, 1
  %68 = zext nneg i16 %67 to i64
  %69 = getelementptr inbounds nuw i8, ptr @.str.106, i64 %68
  %70 = load i16, ptr %69, align 1
  store i16 %70, ptr %58, align 1
  %71 = udiv i64 %.02333.i21, 10000
  %72 = icmp ugt i64 %.02333.i21, 9999999
  br i1 %72, label %.lr.ph.i19, label %._crit_edge.i23, !llvm.loop !356

._crit_edge.i23:                                  ; preds = %.lr.ph.i19
  %73 = icmp ugt i64 %.02333.i21, 99999
  br i1 %73, label %._crit_edge.thread.i9, label %81

._crit_edge.thread.i9:                            ; preds = %._crit_edge.i23, %55
  %.022.lcssa40.i10 = phi ptr [ %58, %._crit_edge.i23 ], [ %56, %55 ]
  %.023.lcssa39.i11 = phi i64 [ %71, %._crit_edge.i23 ], [ %50, %55 ]
  %74 = getelementptr inbounds i8, ptr %.022.lcssa40.i10, i64 -2
  %.lhs.trunc29.i12 = trunc nuw i64 %.023.lcssa39.i11 to i16
  %75 = urem i16 %.lhs.trunc29.i12, 100
  %76 = shl nuw nsw i16 %75, 1
  %77 = zext nneg i16 %76 to i64
  %78 = getelementptr inbounds nuw i8, ptr @.str.106, i64 %77
  %79 = load i16, ptr %78, align 1
  store i16 %79, ptr %74, align 1
  %80 = udiv i16 %.lhs.trunc29.i12, 100
  %.zext32.i13 = zext nneg i16 %80 to i64
  br label %81

81:                                               ; preds = %._crit_edge.thread.i9, %._crit_edge.i23
  %.124.i14 = phi i64 [ %.zext32.i13, %._crit_edge.thread.i9 ], [ %71, %._crit_edge.i23 ]
  %.1.i15 = phi ptr [ %74, %._crit_edge.thread.i9 ], [ %58, %._crit_edge.i23 ]
  %.not.i16 = icmp eq i64 %.124.i14, 0
  br i1 %.not.i16, label %86, label %82

82:                                               ; preds = %81
  %83 = getelementptr inbounds i8, ptr %.1.i15, i64 -1
  %84 = trunc i64 %.124.i14 to i8
  %85 = add nuw nsw i8 %84, 48
  store i8 %85, ptr %83, align 1, !tbaa !15
  br label %86

86:                                               ; preds = %82, %81
  %.2.i17 = phi ptr [ %83, %82 ], [ %.1.i15, %81 ]
  %87 = ptrtoint ptr %56 to i64
  %88 = ptrtoint ptr %.2.i17 to i64
  %89 = sub i64 %87, %88
  %90 = trunc i64 %89 to i32
  %91 = and i64 %89, 4294967295
  call void @llvm.memcpy.p0.p0.i64(ptr nonnull align 1 %49, ptr nonnull align 1 %.2.i17, i64 %91, i1 false)
  call void @llvm.lifetime.end.p0(i64 24, ptr nonnull %3) #48
  %92 = add i32 %90, 1
  br label %_ZN5boost4json6detail13format_uint64EPcm.exit

_ZN5boost4json6detail13format_uint64EPcm.exit:    ; preds = %86, %52, %42, %8
  %.0 = phi i32 [ 1, %8 ], [ %46, %42 ], [ 2, %52 ], [ %92, %86 ]
  ret i32 %.0
}